; Function Attrs: nounwind uwtable
define noalias ptr @dt_copy_filename_extension(ptr noundef %0, ptr noundef readonly %1) local_unnamed_addr #0 {
  %.not = icmp eq ptr %1, null
  br i1 %.not, label %dt_filename_change_extension.exit, label %3

3:                                                ; preds = %2
  %4 = tail call ptr @strrchr(ptr noundef nonnull dereferenceable(1) %1, i32 noundef 46) #26
  %.not8 = icmp eq ptr %4, null
  br i1 %.not8, label %dt_filename_change_extension.exit, label %5

5:                                                ; preds = %3
  %6 = getelementptr inbounds nuw i8, ptr %4, i64 1
  %.not9 = icmp eq ptr %0, null
  br i1 %.not9, label %dt_filename_change_extension.exit, label %7

7:                                                ; preds = %5
  %8 = tail call ptr @strrchr(ptr noundef nonnull dereferenceable(1) %0, i32 noundef 46) #26
  %.not.i = icmp eq ptr %8, null
  br i1 %.not.i, label %dt_filename_change_extension.exit, label %9

9:                                                ; preds = %7
  %10 = ptrtoint ptr %8 to i64
  %11 = ptrtoint ptr %0 to i64
  %12 = sub i64 %10, %11
  %13 = tail call i64 @strlen(ptr noundef nonnull readonly dereferenceable(1) %6) #26
  %14 = add i64 %12, 2
  %15 = add i64 %14, %13
  %sext24.i = shl i64 %15, 32
  %16 = ashr exact i64 %sext24.i, 32
  %17 = tail call noalias ptr @g_try_malloc(i64 noundef %16) #28
  %.not23.i = icmp eq ptr %17, null
  br i1 %.not23.i, label %dt_filename_change_extension.exit, label %18

18:                                               ; preds = %9
  %19 = shl i64 %12, 32
  %sext25.i = add i64 %19, 4294967296
  %20 = ashr exact i64 %sext25.i, 32
  tail call void @llvm.memcpy.p0.p0.i64(ptr nonnull align 1 %17, ptr nonnull align 1 %0, i64 %20, i1 false)
  %21 = getelementptr inbounds i8, ptr %17, i64 %20
  %22 = shl i64 %13, 32
  %sext.i = add i64 %22, 4294967296
  %23 = ashr exact i64 %sext.i, 32
  tail call void @llvm.memcpy.p0.p0.i64(ptr nonnull align 1 %21, ptr nonnull readonly align 1 %6, i64 %23, i1 false)
  br label %dt_filename_change_extension.exit

dt_filename_change_extension.exit:                ; preds = %18, %9, %7, %5, %3, %2
  %.0 = phi ptr [ null, %2 ], [ null, %3 ], [ null, %5 ], [ null, %7 ], [ %17, %18 ], [ null, %9 ]
  ret ptr %.0
}